target datalayout = "e-m:e-p270:32:32-p271:32:32-p272:64:64-i64:64-i128:128-f80:128-n8:16:32:64-S128"
target triple = "x86_64-pc-linux-gnu"

%struct.strvec = type { ptr, i64, i64 }
%struct.credential_capability = type { i8, [3 x i8] }
%struct.imap_server_conf = type { ptr, ptr, i32, ptr, ptr, ptr, i32, i32, i32, ptr }
%struct.credential = type { %struct.string_list, %struct.strvec, %struct.strvec, %struct.strvec, i16, [2 x i8], %struct.credential_capability, %struct.credential_capability, ptr, ptr, ptr, ptr, ptr, ptr, ptr, i64, ptr }
%struct.string_list = type { ptr, i64, i64, i8, ptr }

@the_repository = external global ptr, align 8
@.str.119 = private unnamed_addr constant [6 x i8] c"imaps\00", align 1
@.str.120 = private unnamed_addr constant [5 x i8] c"imap\00", align 1

; Function Attrs: inlinehint nounwind uwtable
define internal ptr @xstrdup_or_null(ptr noundef %0) #5 {
  %2 = alloca ptr, align 8
  store ptr %0, ptr %2, align 8, !tbaa !29
  %3 = load ptr, ptr %2, align 8, !tbaa !29
  %4 = icmp ne ptr %3, null
  br i1 %4, label %5, label %8

5:                                                ; preds = %1
  %6 = load ptr, ptr %2, align 8, !tbaa !29
  %7 = call ptr @xstrdup(ptr noundef %6)
  br label %9

8:                                                ; preds = %1
  br label %9

9:                                                ; preds = %8, %5
  %10 = phi ptr [ %7, %5 ], [ null, %8 ]
  ret ptr %10
}

; Function Attrs: nounwind uwtable
define internal void @server_fill_credential(ptr noundef %0, ptr noundef %1) #0 {
  %3 = alloca ptr, align 8
  %4 = alloca ptr, align 8
  store ptr %0, ptr %3, align 8, !tbaa !32
  store ptr %1, ptr %4, align 8, !tbaa !115
  %5 = load ptr, ptr %3, align 8, !tbaa !32
  %6 = getelementptr inbounds nuw %struct.imap_server_conf, ptr %5, i32 0, i32 4
  %7 = load ptr, ptr %6, align 8, !tbaa !23
  %8 = icmp ne ptr %7, null
  br i1 %8, label %9, label %15

9:                                                ; preds = %2
  %10 = load ptr, ptr %3, align 8, !tbaa !32
  %11 = getelementptr inbounds nuw %struct.imap_server_conf, ptr %10, i32 0, i32 5
  %12 = load ptr, ptr %11, align 8, !tbaa !24
  %13 = icmp ne ptr %12, null
  br i1 %13, label %14, label %15

14:                                               ; preds = %9
  br label %67

15:                                               ; preds = %9, %2
  %16 = load ptr, ptr %3, align 8, !tbaa !32
  %17 = getelementptr inbounds nuw %struct.imap_server_conf, ptr %16, i32 0, i32 6
  %18 = load i32, ptr %17, align 8, !tbaa !14
  %19 = icmp ne i32 %18, 0
  %20 = select i1 %19, ptr @.str.119, ptr @.str.120
  %21 = call ptr @xstrdup(ptr noundef %20)
  %22 = load ptr, ptr %4, align 8, !tbaa !115
  %23 = getelementptr inbounds nuw %struct.credential, ptr %22, i32 0, i32 11
  store ptr %21, ptr %23, align 8, !tbaa !117
  %24 = load ptr, ptr %3, align 8, !tbaa !32
  %25 = getelementptr inbounds nuw %struct.imap_server_conf, ptr %24, i32 0, i32 1
  %26 = load ptr, ptr %25, align 8, !tbaa !18
  %27 = call ptr @xstrdup(ptr noundef %26)
  %28 = load ptr, ptr %4, align 8, !tbaa !115
  %29 = getelementptr inbounds nuw %struct.credential, ptr %28, i32 0, i32 12
  store ptr %27, ptr %29, align 8, !tbaa !118
  %30 = load ptr, ptr %3, align 8, !tbaa !32
  %31 = getelementptr inbounds nuw %struct.imap_server_conf, ptr %30, i32 0, i32 4
  %32 = load ptr, ptr %31, align 8, !tbaa !23
  %33 = call ptr @xstrdup_or_null(ptr noundef %32)
  %34 = load ptr, ptr %4, align 8, !tbaa !115
  %35 = getelementptr inbounds nuw %struct.credential, ptr %34, i32 0, i32 8
  store ptr %33, ptr %35, align 8, !tbaa !50
  %36 = load ptr, ptr %3, align 8, !tbaa !32
  %37 = getelementptr inbounds nuw %struct.imap_server_conf, ptr %36, i32 0, i32 5
  %38 = load ptr, ptr %37, align 8, !tbaa !24
  %39 = call ptr @xstrdup_or_null(ptr noundef %38)
  %40 = load ptr, ptr %4, align 8, !tbaa !115
  %41 = getelementptr inbounds nuw %struct.credential, ptr %40, i32 0, i32 9
  store ptr %39, ptr %41, align 8, !tbaa !119
  %42 = load ptr, ptr @the_repository, align 8, !tbaa !27
  %43 = load ptr, ptr %4, align 8, !tbaa !115
  call void @credential_fill(ptr noundef %42, ptr noundef %43, i32 noundef 1)
  %44 = load ptr, ptr %3, align 8, !tbaa !32
  %45 = getelementptr inbounds nuw %struct.imap_server_conf, ptr %44, i32 0, i32 4
  %46 = load ptr, ptr %45, align 8, !tbaa !23
  %47 = icmp ne ptr %46, null
  br i1 %47, label %55, label %48

48:                                               ; preds = %15
  %49 = load ptr, ptr %4, align 8, !tbaa !115
  %50 = getelementptr inbounds nuw %struct.credential, ptr %49, i32 0, i32 8
  %51 = load ptr, ptr %50, align 8, !tbaa !50
  %52 = call ptr @xstrdup(ptr noundef %51)
  %53 = load ptr, ptr %3, align 8, !tbaa !32
  %54 = getelementptr inbounds nuw %struct.imap_server_conf, ptr %53, i32 0, i32 4
  store ptr %52, ptr %54, align 8, !tbaa !23
  br label %55

55:                                               ; preds = %48, %15
  %56 = load ptr, ptr %3, align 8, !tbaa !32
  %57 = getelementptr inbounds nuw %struct.imap_server_conf, ptr %56, i32 0, i32 5
  %58 = load ptr, ptr %57, align 8, !tbaa !24
  %59 = icmp ne ptr %58, null
  br i1 %59, label %67, label %60

60:                                               ; preds = %55
  %61 = load ptr, ptr %4, align 8, !tbaa !115
  %62 = getelementptr inbounds nuw %struct.credential, ptr %61, i32 0, i32 9
  %63 = load ptr, ptr %62, align 8, !tbaa !119
  %64 = call ptr @xstrdup(ptr noundef %63)
  %65 = load ptr, ptr %3, align 8, !tbaa !32
  %66 = getelementptr inbounds nuw %struct.imap_server_conf, ptr %65, i32 0, i32 5
  store ptr %64, ptr %66, align 8, !tbaa !24
  br label %67

67:                                               ; preds = %14, %60, %55
  ret void
}