; Function Attrs: nounwind uwtable
define internal fastcc void @server_fill_credential(ptr noundef nonnull captures(none) %0, ptr noundef nonnull %1) unnamed_addr #0 {
  %3 = getelementptr inbounds nuw i8, ptr %0, i64 32
  %4 = load ptr, ptr %3, align 8, !tbaa !24
  %.not = icmp eq ptr %4, null
  br i1 %.not, label %8, label %5

5:                                                ; preds = %2
  %6 = getelementptr inbounds nuw i8, ptr %0, i64 40
  %7 = load ptr, ptr %6, align 8, !tbaa !25
  %.not17 = icmp eq ptr %7, null
  br i1 %.not17, label %8, label %39

8:                                                ; preds = %5, %2
  %9 = getelementptr inbounds nuw i8, ptr %0, i64 48
  %10 = load i32, ptr %9, align 8, !tbaa !13
  %.not18 = icmp eq i32 %10, 0
  %11 = select i1 %.not18, ptr @.str.120, ptr @.str.119
  %12 = tail call ptr @xstrdup(ptr noundef nonnull %11) #22
  %13 = getelementptr inbounds nuw i8, ptr %1, i64 152
  store ptr %12, ptr %13, align 8, !tbaa !101
  %14 = getelementptr inbounds nuw i8, ptr %0, i64 8
  %15 = load ptr, ptr %14, align 8, !tbaa !17
  %16 = tail call ptr @xstrdup(ptr noundef %15) #22
  %17 = getelementptr inbounds nuw i8, ptr %1, i64 160
  store ptr %16, ptr %17, align 8, !tbaa !102
  %18 = load ptr, ptr %3, align 8, !tbaa !24
  %.not.i = icmp eq ptr %18, null
  br i1 %.not.i, label %xstrdup_or_null.exit, label %19

19:                                               ; preds = %8
  %20 = tail call ptr @xstrdup(ptr noundef nonnull %18) #22
  br label %xstrdup_or_null.exit

xstrdup_or_null.exit:                             ; preds = %8, %19
  %21 = phi ptr [ %20, %19 ], [ null, %8 ]
  %22 = getelementptr inbounds nuw i8, ptr %1, i64 128
  store ptr %21, ptr %22, align 8, !tbaa !36
  %23 = getelementptr inbounds nuw i8, ptr %0, i64 40
  %24 = load ptr, ptr %23, align 8, !tbaa !25
  %.not.i21 = icmp eq ptr %24, null
  br i1 %.not.i21, label %xstrdup_or_null.exit22, label %25

25:                                               ; preds = %xstrdup_or_null.exit
  %26 = tail call ptr @xstrdup(ptr noundef nonnull %24) #22
  br label %xstrdup_or_null.exit22

xstrdup_or_null.exit22:                           ; preds = %xstrdup_or_null.exit, %25
  %27 = phi ptr [ %26, %25 ], [ null, %xstrdup_or_null.exit ]
  %28 = getelementptr inbounds nuw i8, ptr %1, i64 136
  store ptr %27, ptr %28, align 8, !tbaa !103
  %29 = load ptr, ptr @the_repository, align 8, !tbaa !4
  tail call void @credential_fill(ptr noundef %29, ptr noundef nonnull %1, i32 noundef 1) #22
  %30 = load ptr, ptr %3, align 8, !tbaa !24
  %.not19 = icmp eq ptr %30, null
  br i1 %.not19, label %31, label %34

31:                                               ; preds = %xstrdup_or_null.exit22
  %32 = load ptr, ptr %22, align 8, !tbaa !36
  %33 = tail call ptr @xstrdup(ptr noundef %32) #22
  store ptr %33, ptr %3, align 8, !tbaa !24
  br label %34

34:                                               ; preds = %31, %xstrdup_or_null.exit22
  %35 = load ptr, ptr %23, align 8, !tbaa !25
  %.not20 = icmp eq ptr %35, null
  br i1 %.not20, label %36, label %39

36:                                               ; preds = %34
  %37 = load ptr, ptr %28, align 8, !tbaa !103
  %38 = tail call ptr @xstrdup(ptr noundef %37) #22
  store ptr %38, ptr %23, align 8, !tbaa !25
  br label %39

39:                                               ; preds = %5, %36, %34
  ret void
}